; ModuleID = 'source-C-CXX/44/969.c'
source_filename = "source-C-CXX/44/969.c"
target datalayout = "e-m:e-p270:32:32-p271:32:32-p272:64:64-i64:64-f80:128-n8:16:32:64-S128"
target triple = "x86_64-pc-linux-gnu"

@.str = private unnamed_addr constant [5 x i8] c"%s%s\00", align 1
@.str.1 = private unnamed_addr constant [3 x i8] c"%d\00", align 1

; Function Attrs: nofree nounwind sspstrong uwtable
define dso_local i32 @main() local_unnamed_addr #0 {
  %1 = alloca [2 x [50 x i8]], align 16
  %2 = getelementptr inbounds [2 x [50 x i8]], [2 x [50 x i8]]* %1, i64 0, i64 0, i64 0
  call void @llvm.lifetime.start.p0i8(i64 100, i8* nonnull %2) #4
  %3 = getelementptr inbounds [2 x [50 x i8]], [2 x [50 x i8]]* %1, i64 0, i64 1, i64 0
  %4 = call i32 (i8*, ...) @__isoc99_scanf(i8* getelementptr inbounds ([5 x i8], [5 x i8]* @.str, i64 0, i64 0), i8* nonnull %2, i8* nonnull %3)
  %5 = call i64 @strlen(i8* noundef nonnull %2) #5
  %6 = trunc i64 %5 to i32
  %7 = call i64 @strlen(i8* noundef nonnull %3) #5
  %8 = trunc i64 %7 to i32
  %9 = load i8, i8* %2, align 16
  %10 = icmp slt i32 %8, %6
  br i1 %10, label %42, label %11

11:                                               ; preds = %0
  %12 = add i64 %7, 1
  %13 = sub i64 %12, %5
  %14 = and i64 %13, 4294967295
  br label %15

15:                                               ; preds = %11, %39
  %16 = phi i64 [ 0, %11 ], [ %40, %39 ]
  %17 = getelementptr inbounds [2 x [50 x i8]], [2 x [50 x i8]]* %1, i64 0, i64 1, i64 %16
  %18 = load i8, i8* %17, align 1, !tbaa !5
  %19 = icmp eq i8 %18, %9
  br i1 %19, label %20, label %39

20:                                               ; preds = %15
  %21 = add i64 %16, %5
  %22 = shl i64 %21, 32
  %23 = ashr exact i64 %22, 32
  br label %24

24:                                               ; preds = %20, %28
  %25 = phi i64 [ %16, %20 ], [ %26, %28 ]
  %26 = add nuw nsw i64 %25, 1
  %27 = icmp slt i64 %26, %23
  br i1 %27, label %28, label %36

28:                                               ; preds = %24
  %29 = and i64 %26, 4294967295
  %30 = getelementptr inbounds [2 x [50 x i8]], [2 x [50 x i8]]* %1, i64 0, i64 1, i64 %29
  %31 = load i8, i8* %30, align 1, !tbaa !5
  %32 = sub nuw nsw i64 %26, %16
  %33 = getelementptr inbounds [2 x [50 x i8]], [2 x [50 x i8]]* %1, i64 0, i64 0, i64 %32
  %34 = load i8, i8* %33, align 1, !tbaa !5
  %35 = icmp eq i8 %31, %34
  br i1 %35, label %24, label %39, !llvm.loop !8

36:                                               ; preds = %24
  %37 = trunc i64 %16 to i32
  %38 = call i32 (i8*, ...) @printf(i8* nonnull dereferenceable(1) getelementptr inbounds ([3 x i8], [3 x i8]* @.str.1, i64 0, i64 0), i32 %37)
  br label %42

39:                                               ; preds = %28, %15
  %40 = add nuw nsw i64 %16, 1
  %41 = icmp eq i64 %40, %14
  br i1 %41, label %42, label %15, !llvm.loop !10

42:                                               ; preds = %39, %0, %36
  call void @llvm.lifetime.end.p0i8(i64 100, i8* nonnull %2) #4
  ret i32 0
}

; Function Attrs: argmemonly mustprogress nofree nosync nounwind willreturn
declare void @llvm.lifetime.start.p0i8(i64 immarg, i8* nocapture) #1

; Function Attrs: nofree nounwind
declare noundef i32 @__isoc99_scanf(i8* nocapture noundef readonly, ...) local_unnamed_addr #2

; Function Attrs: argmemonly mustprogress nofree nounwind readonly willreturn
declare i64 @strlen(i8* nocapture) local_unnamed_addr #3

; Function Attrs: nofree nounwind
declare noundef i32 @printf(i8* nocapture noundef readonly, ...) local_unnamed_addr #2

; Function Attrs: argmemonly mustprogress nofree nosync nounwind willreturn
declare void @llvm.lifetime.end.p0i8(i64 immarg, i8* nocapture) #1


!llvm.module.flags = !{!0, !1, !2, !3}
!llvm.ident = !{!4}

!0 = !{i32 1, !"wchar_size", i32 4}
!1 = !{i32 7, !"PIC Level", i32 2}
!2 = !{i32 7, !"PIE Level", i32 2}
!3 = !{i32 7, !"uwtable", i32 1}
!4 = !{!"clang version 13.0.0"}
!5 = !{!6, !6, i64 0}
!6 = !{!"omnipotent char", !7, i64 0}
!7 = !{!"Simple C/C++ TBAA"}
!8 = distinct !{!8, !9}
!9 = !{!"llvm.loop.mustprogress"}
!10 = distinct !{!10, !9}
